; Function Attrs: mustprogress nounwind uwtable
define internal void @_ZN7testing8internal30ValuesInIteratorRangeGeneratorIN12_GLOBAL__N_15ParamEED2Ev(ptr nocapture noundef nonnull align 8 dereferenceable(32) %this) unnamed_addr #3 align 2 personality ptr @__gxx_personality_v0 {
entry:
  store ptr getelementptr inbounds ({ [6 x ptr] }, ptr @_ZTVN7testing8internal30ValuesInIteratorRangeGeneratorIN12_GLOBAL__N_15ParamEEE, i64 0, i32 0, i64 2), ptr %this, align 8
  %container_ = getelementptr inbounds i8, ptr %this, i64 8
  %container_.val = load ptr, ptr %container_, align 8
  %tobool.not.i.i.i = icmp eq ptr %container_.val, null
  br i1 %tobool.not.i.i.i, label %_ZNSt6vectorIN12_GLOBAL__N_15ParamESaIS1_EED2Ev.exit, label %if.then.i.i.i

if.then.i.i.i:                                    ; preds = %entry
  tail call void @_ZdlPv(ptr noundef nonnull %container_.val) #33
  br label %_ZNSt6vectorIN12_GLOBAL__N_15ParamESaIS1_EED2Ev.exit

_ZNSt6vectorIN12_GLOBAL__N_15ParamESaIS1_EED2Ev.exit: ; preds = %entry, %if.then.i.i.i
  ret void
}